(dp0
S'Update loop'
p1
(lp2
F10.988099999999999
aF10.147399999999999
aF11.76
aF16.249700000000001
aF25.110800000000001
aF47.349299999999999
aF97.137699999999995
asS'Permute GPU kernel execution'
p3
(lp4
F0.0092999999999999992
aF0.017299999999999999
aF0.026700000000000002
aF0.0373
aF0.068599999999999994
aF0.13150000000000001
aF0.26019999999999999
asS'Hash GPU kernel execution'
p5
(lp6
F0.0060000000000000001
aF0.0060000000000000001
aF0.0077000000000000002
aF0.0123
aF0.021299999999999999
aF0.039100000000000003
aF0.073599999999999999
asS'Render call'
p7
(lp8
F0.50719999999999998
aF0.41199999999999998
aF0.4148
aF0.54079999999999995
aF0.86890000000000001
aF1.2696000000000001
aF2.1684000000000001
asS'Collision Wall GPU kernel execution'
p9
(lp10
F0.0137
aF0.012699999999999999
aF0.015599999999999999
aF0.024500000000000001
aF0.042000000000000003
aF0.075700000000000003
aF0.14169999999999999
asS'Hash function'
p11
(lp12
F0.1552
aF0.14710000000000001
aF0.1477
aF0.15939999999999999
aF0.16830000000000001
aF0.21379999999999999
aF0.2636
asS'Force GPU kernel execution'
p13
(lp14
F0.28489999999999999
aF0.3851
aF0.80030000000000001
aF1.9568000000000001
aF4.6211000000000002
aF11.4491
aF29.7652
asS'Density GPU kernel execution'
p15
(lp16
F0.1699
aF0.26429999999999998
aF0.47039999999999998
aF1.1237999999999999
aF2.6145
aF6.3705999999999996
aF16.413499999999999
asS'Permute function'
p17
(lp18
F0.15720000000000001
aF0.1583
aF0.187
aF0.29480000000000001
aF0.23369999999999999
aF0.37940000000000002
aF0.53200000000000003
asS'CellIndices function'
p19
(lp20
F1.476
aF1.3631
aF1.6533
aF2.0211999999999999
aF1.5268999999999999
aF2.0876999999999999
aF3.4742000000000002
asS'CellIndices GPU kernel execution'
p21
(lp22
F0.0064000000000000003
aF0.0082000000000000007
aF0.010699999999999999
aF0.014999999999999999
aF0.023800000000000002
aF0.041099999999999998
aF0.074700000000000003
asS'LeapFrog Integration GPU kernel execution'
p23
(lp24
F0.017299999999999999
aF0.0112
aF0.018200000000000001
aF0.032800000000000003
aF0.0596
aF0.1114
aF0.21240000000000001
asS'Force function'
p25
(lp26
F1.0652999999999999
aF0.7591
aF1.3852
aF3.0830000000000002
aF6.8800999999999997
aF18.003599999999999
aF41.962000000000003
asS'Collision wall function'
p27
(lp28
F0.34420000000000001
aF0.22950000000000001
aF0.39350000000000002
aF0.45050000000000001
aF1.0507
aF0.56420000000000003
aF0.49270000000000003
asS'Density function'
p29
(lp30
F0.56850000000000001
aF0.6704
aF0.83520000000000005
aF1.7690999999999999
aF3.8083
aF9.2295999999999996
aF23.2074
asS'Collision triangles function'
p31
(lp32
F0.0011000000000000001
aF0.0011000000000000001
aF0.0011999999999999999
aF0.0012999999999999999
aF0.0012999999999999999
aF0.0012999999999999999
aF0.0012999999999999999
asS'Integration function'
p33
(lp34
F0.32119999999999999
aF0.23769999999999999
aF0.34050000000000002
aF0.43819999999999998
aF1.0644
aF2.3660999999999999
aF0.61539999999999995
asS'Bitonic Sort function'
p35
(lp36
F2.6434000000000002
aF3.1778
aF4.2713000000000001
aF5.7198000000000002
aF8.0692000000000004
aF12.616300000000001
aF24.759499999999999
as.