(dp0
S'Update loop'
p1
(lp2
F10.7608
aF13.674200000000001
aF18.671900000000001
aF30.921600000000002
aF50.5961
aF100.12179999999999
aF194.25470000000001
asS'Permute GPU kernel execution'
p3
(lp4
F0.0086
aF0.016400000000000001
aF0.0218
aF0.037199999999999997
aF0.070699999999999999
aF0.14230000000000001
aF0.28189999999999998
asS'Hash GPU kernel execution'
p5
(lp6
F0.0051000000000000004
aF0.0058999999999999999
aF0.0077000000000000002
aF0.011900000000000001
aF0.0212
aF0.040599999999999997
aF0.076200000000000004
asS'Render call'
p7
(lp8
F0.35389999999999999
aF0.37519999999999998
aF0.3654
aF0.64459999999999995
aF0.7137
aF1.0649999999999999
aF1.8263
asS'Collision Wall GPU kernel execution'
p9
(lp10
F0.0083000000000000001
aF0.0097000000000000003
aF0.0161
aF0.0252
aF0.042299999999999997
aF0.078299999999999995
aF0.14680000000000001
asS'Hash function'
p11
(lp12
F0.1653
aF0.152
aF0.191
aF0.15679999999999999
aF0.1608
aF0.20019999999999999
aF0.25459999999999999
asS'Force GPU kernel execution'
p13
(lp14
F2.1091000000000002
aF2.3527999999999998
aF4.1863000000000001
aF9.0669000000000004
aF17.7882
aF37.346499999999999
aF73.940200000000004
asS'Density GPU kernel execution'
p15
(lp16
F1.2833000000000001
aF1.3188
aF2.2966000000000002
aF5.2503000000000002
aF9.9184000000000001
aF21.0002
aF41.3825
asS'Permute function'
p17
(lp18
F0.14269999999999999
aF0.15959999999999999
aF0.16439999999999999
aF0.19570000000000001
aF0.2238
aF0.34570000000000001
aF0.72130000000000005
asS'CellIndices function'
p19
(lp20
F0.46779999999999999
aF0.49390000000000001
aF0.4904
aF0.4909
aF0.52310000000000001
aF0.72399999999999998
aF1.9979
asS'CellIndices GPU kernel execution'
p21
(lp22
F0.0061999999999999998
aF0.0080999999999999996
aF0.0103
aF0.0146
aF0.023800000000000002
aF0.042000000000000003
aF0.077100000000000002
asS'LeapFrog Integration GPU kernel execution'
p23
(lp24
F0.0080000000000000002
aF0.010500000000000001
aF0.017999999999999999
aF0.032800000000000003
aF0.069699999999999998
aF0.115
aF0.21890000000000001
asS'Force function'
p25
(lp26
F3.1943999999999999
aF3.6509999999999998
aF6.1426999999999996
aF13.4748
aF25.210899999999999
aF54.659999999999997
aF108.81619999999999
asS'Collision wall function'
p27
(lp28
F0.31619999999999998
aF0.91659999999999997
aF1.2509999999999999
aF1.6657
aF1.5762
aF1.4575
aF0.95240000000000002
asS'Density function'
p29
(lp30
F1.9872000000000001
aF2.0455999999999999
aF3.4207999999999998
aF7.6703000000000001
aF13.428000000000001
aF30.1569
aF59.180999999999997
asS'Collision triangles function'
p31
(lp32
F0.0011999999999999999
aF0.0011999999999999999
aF0.0012999999999999999
aF0.0014
aF0.0015
aF0.0016000000000000001
aF0.0016000000000000001
asS'Integration function'
p33
(lp34
F0.30680000000000002
aF0.82840000000000003
aF1.1446000000000001
aF1.623
aF2.4455
aF2.4297
aF4.9077999999999999
asS'Bitonic Sort function'
p35
(lp36
F1.6688000000000001
aF2.4236
aF3.5670000000000002
aF4.3231999999999999
aF5.5599999999999996
aF8.6661999999999999
aF14.8614
as.