(dp0
S'Update loop'
p1
(lp2
F2.6391
aF2.9174000000000002
aF3.6456
aF5.5388999999999999
aF10.136699999999999
aF21.215199999999999
aF45.602800000000002
asS'Permute GPU kernel execution'
p3
(lp4
F0.0086
aF0.0126
aF0.019599999999999999
aF0.034700000000000002
aF0.064600000000000005
aF0.12379999999999999
aF0.23250000000000001
asS'Hash GPU kernel execution'
p5
(lp6
F0.0066
aF0.0076
aF0.0088999999999999999
aF0.012500000000000001
aF0.021000000000000001
aF0.0378
aF0.068199999999999997
asS'Render call'
p7
(lp8
F0.12859999999999999
aF0.14680000000000001
aF0.17480000000000001
aF0.24779999999999999
aF0.39789999999999998
aF0.67190000000000005
aF1.2255
asS'Collision Wall GPU kernel execution'
p9
(lp10
F0.0091999999999999998
aF0.0099000000000000008
aF0.0146
aF0.0212
aF0.034099999999999998
aF0.059200000000000003
aF0.105
asS'Hash function'
p11
(lp12
F0.048500000000000001
aF0.046899999999999997
aF0.043099999999999999
aF0.047300000000000002
aF0.061800000000000001
aF0.079600000000000004
aF0.1079
asS'Force GPU kernel execution'
p13
(lp14
F0.14199999999999999
aF0.27879999999999999
aF0.62919999999999998
aF1.5804
aF3.8018000000000001
aF9.5527999999999995
aF23.8447
asS'Density GPU kernel execution'
p15
(lp16
F0.091300000000000006
aF0.17000000000000001
aF0.34060000000000001
aF0.83740000000000003
aF1.998
aF4.9904999999999999
aF12.444900000000001
asS'Permute function'
p17
(lp18
F0.0487
aF0.0453
aF0.051400000000000001
aF0.065500000000000003
aF0.096799999999999997
aF0.15570000000000001
aF0.2676
asS'CellIndices function'
p19
(lp20
F1.0358000000000001
aF1.0055000000000001
aF0.99560000000000004
aF0.99680000000000002
aF1.0261
aF1.0746
aF1.1077999999999999
asS'CellIndices GPU kernel execution'
p21
(lp22
F0.0061000000000000004
aF0.0064999999999999997
aF0.0077999999999999996
aF0.0104
aF0.016500000000000001
aF0.027400000000000001
aF0.047500000000000001
asS'LeapFrog Integration GPU kernel execution'
p23
(lp24
F0.0083999999999999995
aF0.0097000000000000003
aF0.015100000000000001
aF0.028500000000000001
aF0.052699999999999997
aF0.099500000000000005
aF0.1852
asS'Force function'
p25
(lp26
F0.1764
aF0.31280000000000002
aF0.66000000000000003
aF1.5999000000000001
aF3.8431000000000002
aF10.0388
aF24.076599999999999
asS'Collision wall function'
p27
(lp28
F0.042299999999999997
aF0.041500000000000002
aF0.0499
aF0.067199999999999996
aF0.14749999999999999
aF0.40089999999999998
aF0.4647
asS'Density function'
p29
(lp30
F0.127
aF0.20219999999999999
aF0.36919999999999997
aF0.85729999999999995
aF2.0055000000000001
aF4.8399000000000001
aF12.412699999999999
asS'Collision triangles function'
p31
(lp32
F0.00089999999999999998
aF0.00089999999999999998
aF0.00089999999999999998
aF0.00089999999999999998
aF0.001
aF0.001
aF0.001
asS'Integration function'
p33
(lp34
F0.044200000000000003
aF0.0419
aF0.047100000000000003
aF0.063399999999999998
aF0.095799999999999996
aF0.16569999999999999
aF0.28129999999999999
asS'Bitonic Sort function'
p35
(lp36
F0.66010000000000002
aF0.81830000000000003
aF1.1093
aF1.5194000000000001
aF2.4842
aF3.9891000000000001
aF6.4903000000000004
as.