(dp0
S'Update loop'
p1
(lp2
F3.3393999999999999
aF4.5675999999999997
aF4.3228999999999997
aF15.2776
aF24.642700000000001
aF49.291499999999999
aF100.72669999999999
asS'Permute GPU kernel execution'
p3
(lp4
F0.0089999999999999993
aF0.012699999999999999
aF0.0143
aF0.035000000000000003
aF0.064699999999999994
aF0.1278
aF0.2616
asS'Hash GPU kernel execution'
p5
(lp6
F0.0066
aF0.0074000000000000003
aF0.0077000000000000002
aF0.012200000000000001
aF0.020799999999999999
aF0.038100000000000002
aF0.072300000000000003
asS'Render call'
p7
(lp8
F0.1105
aF0.13880000000000001
aF0.15770000000000001
aF0.25040000000000001
aF0.36959999999999998
aF0.65890000000000004
aF1.2219
asS'Collision Wall GPU kernel execution'
p9
(lp10
F0.0091999999999999998
aF0.0101
aF0.0117
aF0.0212
aF0.033799999999999997
aF0.060100000000000001
aF0.11119999999999999
asS'Hash function'
p11
(lp12
F0.042000000000000003
aF0.042700000000000002
aF0.0436
aF0.052400000000000002
aF0.059900000000000002
aF0.076799999999999993
aF0.1142
asS'Force GPU kernel execution'
p13
(lp14
F1.4092
aF1.9633
aF1.861
aF6.8402000000000003
aF13.7691
aF29.250299999999999
aF60.4255
asS'Density GPU kernel execution'
p15
(lp16
F0.88919999999999999
aF1.1142000000000001
aF1.0226999999999999
aF3.6568000000000001
aF7.3071999999999999
aF15.613300000000001
aF32.520899999999997
asS'Permute function'
p17
(lp18
F0.043200000000000002
aF0.045699999999999998
aF0.0453
aF0.0717
aF0.097500000000000003
aF0.16320000000000001
aF0.29899999999999999
asS'CellIndices function'
p19
(lp20
F0.1605
aF0.13159999999999999
aF0.12939999999999999
aF0.18110000000000001
aF0.21110000000000001
aF0.29360000000000003
aF0.46289999999999998
asS'CellIndices GPU kernel execution'
p21
(lp22
F0.0061999999999999998
aF0.0063
aF0.0067000000000000002
aF0.0101
aF0.0161
aF0.0275
aF0.049799999999999997
asS'LeapFrog Integration GPU kernel execution'
p23
(lp24
F0.0083999999999999995
aF0.0097000000000000003
aF0.011299999999999999
aF0.028000000000000001
aF0.0516
aF0.1004
aF0.1958
asS'Force function'
p25
(lp26
F1.2585
aF1.9571000000000001
aF1.9085000000000001
aF7.8948
aF14.385999999999999
aF29.280000000000001
aF60.813499999999998
asS'Collision wall function'
p27
(lp28
F0.1201
aF0.2155
aF0.071900000000000006
aF1.6851
aF0.36919999999999997
aF0.5605
aF1.3668
asS'Density function'
p29
(lp30
F0.78129999999999999
aF1.123
aF1.0405
aF3.6574
aF7.2629000000000001
aF15.6195
aF32.448
asS'Collision triangles function'
p31
(lp32
F0.00089999999999999998
aF0.00089999999999999998
aF0.001
aF0.001
aF0.001
aF0.0011000000000000001
aF0.0011000000000000001
asS'Integration function'
p33
(lp34
F0.047500000000000001
aF0.048599999999999997
aF0.047300000000000002
aF0.10440000000000001
aF0.1236
aF0.2457
aF0.37130000000000002
asS'Bitonic Sort function'
p35
(lp36
F0.46679999999999999
aF0.62290000000000001
aF0.68630000000000002
aF1.2708999999999999
aF1.6814
aF2.5478999999999998
aF4.2346000000000004
as.